; Function Attrs: nounwind uwtable
define internal zeroext i1 @HIDAPI_DriverSteam_SendJoystickEffect(ptr noundef readonly captures(none) %0, ptr readnone captures(none) %1, ptr noundef %2, i32 noundef %3) #0 {
  %5 = alloca [20 x i8], align 16
  %6 = icmp eq i32 %3, 65
  br i1 %6, label %7, label %34

7:                                                ; preds = %4
  %8 = getelementptr inbounds nuw i8, ptr %0, i64 84
  %9 = load i8, ptr %8, align 4, !range !3, !noundef !4
  %10 = trunc nuw i8 %9 to i1
  br i1 %10, label %.lr.ph.i, label %.preheader.i

.preheader.i:                                     ; preds = %7
  %11 = getelementptr inbounds nuw i8, ptr %0, i64 128
  br label %26

.lr.ph.i:                                         ; preds = %7
  call void @llvm.lifetime.start.p0(i64 20, ptr nonnull %5) #9
  %12 = getelementptr inbounds nuw i8, ptr %2, i64 1
  %13 = getelementptr inbounds nuw i8, ptr %5, i64 1
  %14 = getelementptr inbounds nuw i8, ptr %5, i64 2
  %15 = getelementptr inbounds nuw i8, ptr %0, i64 128
  br label %16

16:                                               ; preds = %16, %.lr.ph.i
  %.02637.i = phi ptr [ %12, %.lr.ph.i ], [ %21, %16 ]
  %.02736.i = phi i8 [ 0, %.lr.ph.i ], [ %22, %16 ]
  %.03035.i = phi i32 [ 64, %.lr.ph.i ], [ %18, %16 ]
  %17 = call i32 @llvm.umin.i32(i32 %.03035.i, i32 18)
  %18 = sub nsw i32 %.03035.i, %17
  call void @llvm.memset.p0.i64(ptr noundef nonnull align 16 dereferenceable(20) %5, i8 0, i64 20, i1 false)
  store i8 3, ptr %5, align 16
  %19 = icmp eq i32 %18, 0
  %spec.select.v.i.i = select i1 %19, i8 -64, i8 -128
  %spec.select.i.i = or i8 %spec.select.v.i.i, %.02736.i
  store i8 %spec.select.i.i, ptr %13, align 1
  %20 = zext nneg i32 %17 to i64
  call void @llvm.memcpy.p0.p0.i64(ptr noundef nonnull align 2 dereferenceable(1) %14, ptr noundef nonnull align 1 dereferenceable(1) %.02637.i, i64 %20, i1 false)
  %21 = getelementptr inbounds nuw i8, ptr %.02637.i, i64 %20
  %22 = add nuw nsw i8 %.02736.i, 1
  %23 = load ptr, ptr %15, align 8
  %24 = call i32 @SDL_hid_send_feature_report_REAL(ptr noundef %23, ptr noundef nonnull %5, i64 noundef 20) #9
  %25 = icmp sgt i32 %18, 0
  br i1 %25, label %16, label %SetFeatureReport.exit, !llvm.loop !12

26:                                               ; preds = %30, %.preheader.i
  %.034.i = phi i32 [ 0, %.preheader.i ], [ %31, %30 ]
  %27 = load ptr, ptr %11, align 8
  %28 = tail call i32 @SDL_hid_send_feature_report_REAL(ptr noundef %27, ptr noundef %2, i64 noundef 65) #9
  %29 = icmp sgt i32 %28, -1
  br i1 %29, label %SetFeatureReport.exit.thread6, label %30

30:                                               ; preds = %26
  tail call void @SDL_DelayNS_REAL(i64 noundef 500000) #9
  %31 = add nuw nsw i32 %.034.i, 1
  %exitcond.not.i = icmp eq i32 %31, 50
  br i1 %exitcond.not.i, label %SetFeatureReport.exit.thread, label %26, !llvm.loop !5

SetFeatureReport.exit:                            ; preds = %16
  call void @llvm.lifetime.end.p0(i64 20, ptr nonnull %5) #9
  %32 = icmp slt i32 %24, 0
  br i1 %32, label %SetFeatureReport.exit.thread, label %SetFeatureReport.exit.thread6

SetFeatureReport.exit.thread:                     ; preds = %30, %SetFeatureReport.exit
  %33 = call zeroext i1 (ptr, ...) @SDL_SetError_REAL(ptr noundef nonnull @.str.15) #9
  br label %SetFeatureReport.exit.thread6

34:                                               ; preds = %4
  %35 = tail call zeroext i1 (ptr, ...) @SDL_SetError_REAL(ptr noundef nonnull @.str.16) #9
  br label %SetFeatureReport.exit.thread6

SetFeatureReport.exit.thread6:                    ; preds = %26, %SetFeatureReport.exit, %34, %SetFeatureReport.exit.thread
  %.0 = phi i1 [ %33, %SetFeatureReport.exit.thread ], [ %35, %34 ], [ true, %SetFeatureReport.exit ], [ true, %26 ]
  ret i1 %.0
}